target datalayout = "e-m:e-p270:32:32-p271:32:32-p272:64:64-i64:64-i128:128-f80:128-n8:16:32:64-S128"
target triple = "x86_64-unknown-linux-gnu"

@_ZTIN6icu_758CollatorE = external constant ptr
@_ZTIN6icu_7517RuleBasedCollatorE = external constant ptr

; Function Attrs: mustprogress nounwind uwtable
define linkonce_odr noundef ptr @_ZN6icu_758Collator13fromUCollatorEPK9UCollator(ptr noundef %uc) #1 comdat align 2 {
entry:
  %uc.addr = alloca ptr, align 8
  store ptr %uc, ptr %uc.addr, align 8
  %0 = load ptr, ptr %uc.addr, align 8
  ret ptr %0
}

; Function Attrs: mustprogress nounwind uwtable
define linkonce_odr noundef ptr @_ZN6icu_758Collator11toUCollatorEv(ptr noundef nonnull align 8 dereferenceable(8) %this) #1 comdat align 2 {
entry:
  %this.addr = alloca ptr, align 8
  store ptr %this, ptr %this.addr, align 8
  %this1 = load ptr, ptr %this.addr, align 8
  ret ptr %this1
}

; Function Attrs: mustprogress uwtable
define linkonce_odr noundef ptr @_ZN6icu_7517RuleBasedCollator16rbcFromUCollatorEPK9UCollator(ptr noundef %uc) #0 comdat align 2 {
entry:
  %uc.addr = alloca ptr, align 8
  store ptr %uc, ptr %uc.addr, align 8
  %0 = load ptr, ptr %uc.addr, align 8
  %call = call noundef ptr @_ZN6icu_758Collator13fromUCollatorEPK9UCollator(ptr noundef %0)
  %1 = icmp eq ptr %call, null
  br i1 %1, label %dynamic_cast.null, label %dynamic_cast.notnull

dynamic_cast.notnull:                             ; preds = %entry
  %2 = call ptr @__dynamic_cast(ptr %call, ptr @_ZTIN6icu_758CollatorE, ptr @_ZTIN6icu_7517RuleBasedCollatorE, i64 0) #7
  br label %dynamic_cast.end

dynamic_cast.null:                                ; preds = %entry
  br label %dynamic_cast.end

dynamic_cast.end:                                 ; preds = %dynamic_cast.null, %dynamic_cast.notnull
  %3 = phi ptr [ %2, %dynamic_cast.notnull ], [ null, %dynamic_cast.null ]
  ret ptr %3
}

; Function Attrs: mustprogress nounwind uwtable
define internal noundef signext i8 @_ZL9U_FAILURE10UErrorCode(i32 noundef %code) #1 {
entry:
  %code.addr = alloca i32, align 4
  store i32 %code, ptr %code.addr, align 4
  %0 = load i32, ptr %code.addr, align 4
  %cmp = icmp sgt i32 %0, 0
  %conv = zext i1 %cmp to i8
  ret i8 %conv
}

; Function Attrs: mustprogress uwtable
define ptr @ucol_openBinary_75(ptr noundef %bin, i32 noundef %length, ptr noundef %base, ptr noundef %status) #0 personality ptr @__gxx_personality_v0 {
entry:
  %retval = alloca ptr, align 8
  %bin.addr = alloca ptr, align 8
  %length.addr = alloca i32, align 4
  %base.addr = alloca ptr, align 8
  %status.addr = alloca ptr, align 8
  %coll = alloca ptr, align 8
  %saved-rvalue = alloca ptr, align 8
  %cleanup.cond = alloca i1, align 1
  %exn.slot = alloca ptr, align 8
  %ehselector.slot = alloca i32, align 4
  store ptr %bin, ptr %bin.addr, align 8
  store i32 %length, ptr %length.addr, align 4
  store ptr %base, ptr %base.addr, align 8
  store ptr %status, ptr %status.addr, align 8
  %0 = load ptr, ptr %status.addr, align 8
  %1 = load i32, ptr %0, align 4
  %call = call noundef signext i8 @_ZL9U_FAILURE10UErrorCode(i32 noundef %1)
  %tobool = icmp ne i8 %call, 0
  br i1 %tobool, label %if.then, label %if.end

if.then:                                          ; preds = %entry
  store ptr null, ptr %retval, align 8
  br label %return

if.end:                                           ; preds = %entry
  %call1 = call noundef ptr @_ZN6icu_757UMemorynwEm(i64 noundef 272) #7
  %new.isnull = icmp eq ptr %call1, null
  store i1 false, ptr %cleanup.cond, align 1
  br i1 %new.isnull, label %new.cont, label %new.notnull

new.notnull:                                      ; preds = %if.end
  store ptr %call1, ptr %saved-rvalue, align 8
  store i1 true, ptr %cleanup.cond, align 1
  %2 = load ptr, ptr %bin.addr, align 8
  %3 = load i32, ptr %length.addr, align 4
  %4 = load ptr, ptr %base.addr, align 8
  %call2 = invoke noundef ptr @_ZN6icu_7517RuleBasedCollator16rbcFromUCollatorEPK9UCollator(ptr noundef %4)
          to label %invoke.cont unwind label %lpad

invoke.cont:                                      ; preds = %new.notnull
  %5 = load ptr, ptr %status.addr, align 8
  invoke void @_ZN6icu_7517RuleBasedCollatorC1EPKhiPKS0_R10UErrorCode(ptr noundef nonnull align 8 dereferenceable(272) %call1, ptr noundef %2, i32 noundef %3, ptr noundef %call2, ptr noundef nonnull align 4 dereferenceable(4) %5)
          to label %invoke.cont3 unwind label %lpad

invoke.cont3:                                     ; preds = %invoke.cont
  br label %new.cont

new.cont:                                         ; preds = %invoke.cont3, %if.end
  %6 = phi ptr [ %call1, %invoke.cont3 ], [ null, %if.end ]
  store ptr %6, ptr %coll, align 8
  %7 = load ptr, ptr %coll, align 8
  %cmp = icmp eq ptr %7, null
  br i1 %cmp, label %if.then4, label %if.end5

if.then4:                                         ; preds = %new.cont
  %8 = load ptr, ptr %status.addr, align 8
  store i32 7, ptr %8, align 4
  store ptr null, ptr %retval, align 8
  br label %return

lpad:                                             ; preds = %invoke.cont, %new.notnull
  %9 = landingpad { ptr, i32 }
          cleanup
  %10 = extractvalue { ptr, i32 } %9, 0
  store ptr %10, ptr %exn.slot, align 8
  %11 = extractvalue { ptr, i32 } %9, 1
  store i32 %11, ptr %ehselector.slot, align 4
  %cleanup.is_active = load i1, ptr %cleanup.cond, align 1
  br i1 %cleanup.is_active, label %cleanup.action, label %cleanup.done

cleanup.action:                                   ; preds = %lpad
  %12 = load ptr, ptr %saved-rvalue, align 8
  call void @_ZN6icu_757UMemorydlEPv(ptr noundef %12) #7
  br label %cleanup.done

cleanup.done:                                     ; preds = %cleanup.action, %lpad
  br label %eh.resume

if.end5:                                          ; preds = %new.cont
  %13 = load ptr, ptr %status.addr, align 8
  %14 = load i32, ptr %13, align 4
  %call6 = call noundef signext i8 @_ZL9U_FAILURE10UErrorCode(i32 noundef %14)
  %tobool7 = icmp ne i8 %call6, 0
  br i1 %tobool7, label %if.then8, label %if.end9

if.then8:                                         ; preds = %if.end5
  %15 = load ptr, ptr %coll, align 8
  %isnull = icmp eq ptr %15, null
  br i1 %isnull, label %delete.end, label %delete.notnull

delete.notnull:                                   ; preds = %if.then8
  call void @_ZN6icu_7517RuleBasedCollatorD1Ev(ptr noundef nonnull align 8 dereferenceable(272) %15) #7
  call void @_ZN6icu_757UMemorydlEPv(ptr noundef %15) #7
  br label %delete.end

delete.end:                                       ; preds = %delete.notnull, %if.then8
  store ptr null, ptr %retval, align 8
  br label %return

if.end9:                                          ; preds = %if.end5
  %16 = load ptr, ptr %coll, align 8
  %call10 = call noundef ptr @_ZN6icu_758Collator11toUCollatorEv(ptr noundef nonnull align 8 dereferenceable(8) %16)
  store ptr %call10, ptr %retval, align 8
  br label %return

return:                                           ; preds = %if.end9, %delete.end, %if.then4, %if.then
  %17 = load ptr, ptr %retval, align 8
  ret ptr %17

eh.resume:                                        ; preds = %cleanup.done
  %exn = load ptr, ptr %exn.slot, align 8
  %sel = load i32, ptr %ehselector.slot, align 4
  %lpad.val = insertvalue { ptr, i32 } poison, ptr %exn, 0
  %lpad.val11 = insertvalue { ptr, i32 } %lpad.val, i32 %sel, 1
  resume { ptr, i32 } %lpad.val11
}