; Function Attrs: mustprogress uwtable
define noundef ptr @ucol_openBinary_75(ptr noundef %bin, i32 noundef %length, ptr noundef %base, ptr noundef %status) local_unnamed_addr #0 personality ptr @__gxx_personality_v0 {
entry:
  %0 = load i32, ptr %status, align 4
  %cmp.i = icmp slt i32 %0, 1
  br i1 %cmp.i, label %if.end, label %return

if.end:                                           ; preds = %entry
  %call1 = tail call noundef ptr @_ZN6icu_757UMemorynwEm(i64 noundef 272) #10
  %new.isnull = icmp eq ptr %call1, null
  br i1 %new.isnull, label %if.then4, label %new.notnull

new.notnull:                                      ; preds = %if.end
  %1 = icmp eq ptr %base, null
  br i1 %1, label %invoke.cont, label %dynamic_cast.notnull.i

dynamic_cast.notnull.i:                           ; preds = %new.notnull
  %2 = tail call ptr @__dynamic_cast(ptr nonnull %base, ptr nonnull @_ZTIN6icu_758CollatorE, ptr nonnull @_ZTIN6icu_7517RuleBasedCollatorE, i64 0) #10
  br label %invoke.cont

invoke.cont:                                      ; preds = %dynamic_cast.notnull.i, %new.notnull
  %3 = phi ptr [ %2, %dynamic_cast.notnull.i ], [ null, %new.notnull ]
  invoke void @_ZN6icu_7517RuleBasedCollatorC1EPKhiPKS0_R10UErrorCode(ptr noundef nonnull align 8 dereferenceable(272) %call1, ptr noundef %bin, i32 noundef %length, ptr noundef %3, ptr noundef nonnull align 4 dereferenceable(4) %status)
          to label %if.end5 unwind label %lpad

if.then4:                                         ; preds = %if.end
  store i32 7, ptr %status, align 4
  br label %return

lpad:                                             ; preds = %invoke.cont
  %4 = landingpad { ptr, i32 }
          cleanup
  tail call void @_ZN6icu_757UMemorydlEPv(ptr noundef nonnull %call1) #10
  resume { ptr, i32 } %4

if.end5:                                          ; preds = %invoke.cont
  %5 = load i32, ptr %status, align 4
  %cmp.i6 = icmp slt i32 %5, 1
  br i1 %cmp.i6, label %return, label %delete.notnull

delete.notnull:                                   ; preds = %if.end5
  tail call void @_ZN6icu_7517RuleBasedCollatorD1Ev(ptr noundef nonnull align 8 dereferenceable(272) %call1) #10
  tail call void @_ZN6icu_757UMemorydlEPv(ptr noundef nonnull %call1) #10
  br label %return

return:                                           ; preds = %if.end5, %entry, %delete.notnull, %if.then4
  %retval.0 = phi ptr [ null, %if.then4 ], [ null, %delete.notnull ], [ null, %entry ], [ %call1, %if.end5 ]
  ret ptr %retval.0
}